; Function Attrs: mustprogress uwtable
define dso_local void @_ZN12cmCryptoHash8HashFileERKNSt7__cxx1112basic_stringIcSt11char_traitsIcESaIcEEE(ptr dead_on_unwind noalias writable sret(%"class.std::__cxx11::basic_string") align 8 %0, ptr noundef nonnull readonly align 8 captures(none) dereferenceable(16) %1, ptr noundef nonnull readonly align 8 captures(none) dereferenceable(32) %2) local_unnamed_addr #0 align 2 personality ptr @__gxx_personality_v0 {
  %4 = alloca %"class.std::vector", align 8
  call void @llvm.lifetime.start.p0(i64 24, ptr nonnull %4) #18
  call void @_ZN12cmCryptoHash12ByteHashFileERKNSt7__cxx1112basic_stringIcSt11char_traitsIcESaIcEEE(ptr dead_on_unwind nonnull writable sret(%"class.std::vector") align 8 %4, ptr noundef nonnull align 8 dereferenceable(16) %1, ptr noundef nonnull align 8 dereferenceable(32) %2)
  invoke void @_ZN12cmCryptoHash16ByteHashToStringB5cxx11ERKSt6vectorIhSaIhEE(ptr dead_on_unwind writable sret(%"class.std::__cxx11::basic_string") align 8 %0, ptr noundef nonnull align 8 dereferenceable(24) %4)
          to label %5 unwind label %13

5:                                                ; preds = %3
  %6 = load ptr, ptr %4, align 8, !tbaa !44
  %.not.i.i.i = icmp eq ptr %6, null
  br i1 %.not.i.i.i, label %_ZNSt6vectorIhSaIhEED2Ev.exit, label %7

7:                                                ; preds = %5
  %8 = getelementptr inbounds nuw i8, ptr %4, i64 16
  %9 = load ptr, ptr %8, align 8, !tbaa !50
  %10 = ptrtoint ptr %9 to i64
  %11 = ptrtoint ptr %6 to i64
  %12 = sub i64 %10, %11
  tail call void @_ZdlPvm(ptr noundef nonnull %6, i64 noundef %12) #20
  br label %_ZNSt6vectorIhSaIhEED2Ev.exit

_ZNSt6vectorIhSaIhEED2Ev.exit:                    ; preds = %5, %7
  call void @llvm.lifetime.end.p0(i64 24, ptr nonnull %4) #18
  ret void

13:                                               ; preds = %3
  %14 = landingpad { ptr, i32 }
          cleanup
  %15 = load ptr, ptr %4, align 8, !tbaa !44
  %.not.i.i.i3 = icmp eq ptr %15, null
  br i1 %.not.i.i.i3, label %_ZNSt6vectorIhSaIhEED2Ev.exit4, label %16

16:                                               ; preds = %13
  %17 = getelementptr inbounds nuw i8, ptr %4, i64 16
  %18 = load ptr, ptr %17, align 8, !tbaa !50
  %19 = ptrtoint ptr %18 to i64
  %20 = ptrtoint ptr %15 to i64
  %21 = sub i64 %19, %20
  tail call void @_ZdlPvm(ptr noundef nonnull %15, i64 noundef %21) #20
  br label %_ZNSt6vectorIhSaIhEED2Ev.exit4

_ZNSt6vectorIhSaIhEED2Ev.exit4:                   ; preds = %13, %16
  call void @llvm.lifetime.end.p0(i64 24, ptr nonnull %4) #18
  resume { ptr, i32 } %14
}